; Function Attrs: mustprogress uwtable
define dso_local void @_ZN5cmake16SetTraceRedirectEPS_(ptr noundef nonnull align 8 dereferenceable(2216) %0, ptr noundef %1) local_unnamed_addr #3 align 2 {
  %3 = getelementptr inbounds i8, ptr %1, i64 270
  %4 = load i8, ptr %3, align 2
  %5 = and i8 %4, 1
  %6 = getelementptr inbounds i8, ptr %0, i64 270
  store i8 %5, ptr %6, align 2
  %7 = getelementptr inbounds i8, ptr %1, i64 271
  %8 = load i8, ptr %7, align 1
  %9 = and i8 %8, 1
  %10 = getelementptr inbounds i8, ptr %0, i64 271
  store i8 %9, ptr %10, align 1
  %11 = getelementptr inbounds i8, ptr %1, i64 272
  %12 = load i32, ptr %11, align 8
  %13 = getelementptr inbounds i8, ptr %0, i64 272
  store i32 %12, ptr %13, align 8
  %14 = getelementptr inbounds i8, ptr %1, i64 1952
  %15 = getelementptr inbounds i8, ptr %0, i64 1952
  %16 = tail call noundef nonnull align 8 dereferenceable(24) ptr @_ZNSt6vectorINSt7__cxx1112basic_stringIcSt11char_traitsIcESaIcEEESaIS5_EEaSERKS7_(ptr noundef nonnull align 8 dereferenceable(24) %15, ptr noundef nonnull align 8 dereferenceable(24) %14)
  %17 = getelementptr inbounds i8, ptr %0, i64 896
  store ptr %1, ptr %17, align 8
  ret void
}